; Function Attrs: mustprogress nounwind uwtable
define internal fastcc noundef ptr @_ZSt22__uninitialized_copy_aIN9__gnu_cxx17__normal_iteratorIPKN12_GLOBAL__N_117StructInitializerESt6vectorIS3_SaIS3_EEEEPS3_S3_ET0_T_SC_SB_RSaIT1_E(ptr readonly %0, ptr readnone %1, ptr noundef writeonly %2) unnamed_addr #0 {
  %.not2 = icmp eq ptr %0, %1
  br i1 %.not2, label %_ZNSt20__uninitialized_copyILb0EE13__uninit_copyIN9__gnu_cxx17__normal_iteratorIPKN12_GLOBAL__N_117StructInitializerESt6vectorIS5_SaIS5_EEEEPS5_EET0_T_SE_SD_.exit, label %.lr.ph

.lr.ph:                                           ; preds = %3, %.lr.ph
  %.0.i.i4 = phi ptr [ %5, %.lr.ph ], [ %2, %3 ]
  %.sroa.01.03 = phi ptr [ %4, %.lr.ph ], [ %0, %3 ]
  tail call fastcc void @_ZSt10_ConstructIN12_GLOBAL__N_117StructInitializerEJRKS1_EEvPT_DpOT0_(ptr noundef %.0.i.i4, ptr noundef nonnull align 8 dereferenceable(24) %.sroa.01.03)
  %4 = getelementptr inbounds nuw i8, ptr %.sroa.01.03, i64 24
  %5 = getelementptr inbounds nuw i8, ptr %.0.i.i4, i64 24
  %.not = icmp eq ptr %4, %1
  br i1 %.not, label %_ZNSt20__uninitialized_copyILb0EE13__uninit_copyIN9__gnu_cxx17__normal_iteratorIPKN12_GLOBAL__N_117StructInitializerESt6vectorIS5_SaIS5_EEEEPS5_EET0_T_SE_SD_.exit, label %.lr.ph, !llvm.loop !838

_ZNSt20__uninitialized_copyILb0EE13__uninit_copyIN9__gnu_cxx17__normal_iteratorIPKN12_GLOBAL__N_117StructInitializerESt6vectorIS5_SaIS5_EEEEPS5_EET0_T_SE_SD_.exit: ; preds = %.lr.ph, %3
  %.0.i.i.lcssa = phi ptr [ %2, %3 ], [ %5, %.lr.ph ]
  ret ptr %.0.i.i.lcssa
}